target datalayout = "e-m:e-p270:32:32-p271:32:32-p272:64:64-i64:64-i128:128-f80:128-n8:16:32:64-S128"
target triple = "x86_64-pc-linux-gnu"

%struct.acct_gather_energy = type { i32, i64, i64, i32, i64, i64, i64 }

@.str.3 = private unnamed_addr constant [21 x i8] c"acct_gather_energy.c\00", align 1
@__func__.acct_gather_energy_alloc = private unnamed_addr constant [25 x i8] c"acct_gather_energy_alloc\00", align 1

; Function Attrs: nounwind uwtable
define dso_local void @acct_gather_energy_destroy(ptr noundef %0) #0 {
  %2 = alloca ptr, align 8
  store ptr %0, ptr %2, align 8
  call void @slurm_xfree(ptr noundef %2)
  ret void
}

; Function Attrs: nounwind uwtable
define dso_local ptr @acct_gather_energy_alloc(i16 noundef zeroext %0) #0 {
  %2 = alloca i16, align 2
  store i16 %0, ptr %2, align 2
  %3 = load i16, ptr %2, align 2
  %4 = zext i16 %3 to i64
  %5 = call ptr @slurm_xcalloc(i64 noundef %4, i64 noundef 56, i1 noundef zeroext true, i1 noundef zeroext false, ptr noundef @.str.3, i32 noundef 230, ptr noundef @__func__.acct_gather_energy_alloc)
  ret ptr %5
}

; Function Attrs: nounwind uwtable
define dso_local i32 @acct_gather_energy_unpack(ptr noundef %0, ptr noundef %1, i16 noundef zeroext %2, i1 noundef zeroext %3) #0 {
  %5 = alloca i32, align 4
  %6 = alloca ptr, align 8
  %7 = alloca ptr, align 8
  %8 = alloca i16, align 2
  %9 = alloca i8, align 1
  %10 = alloca ptr, align 8
  %11 = alloca i32, align 4
  store ptr %0, ptr %6, align 8
  store ptr %1, ptr %7, align 8
  store i16 %2, ptr %8, align 2
  %12 = zext i1 %3 to i8
  store i8 %12, ptr %9, align 1
  call void @llvm.lifetime.start.p0(i64 8, ptr %10) #7
  %13 = load i8, ptr %9, align 1, !range !11, !noundef !12
  %14 = trunc i8 %13 to i1
  br i1 %14, label %15, label %19

15:                                               ; preds = %4
  %16 = call ptr @acct_gather_energy_alloc(i16 noundef zeroext 1)
  store ptr %16, ptr %10, align 8
  %17 = load ptr, ptr %10, align 8
  %18 = load ptr, ptr %6, align 8
  store ptr %17, ptr %18, align 8
  br label %22

19:                                               ; preds = %4
  %20 = load ptr, ptr %6, align 8
  %21 = load ptr, ptr %20, align 8
  store ptr %21, ptr %10, align 8
  br label %22

22:                                               ; preds = %19, %15
  %23 = load i16, ptr %8, align 2
  %24 = zext i16 %23 to i32
  %25 = icmp sge i32 %24, 10752
  br i1 %25, label %26, label %97

26:                                               ; preds = %22
  br label %27

27:                                               ; preds = %26
  %28 = load ptr, ptr %10, align 8
  %29 = getelementptr inbounds nuw %struct.acct_gather_energy, ptr %28, i32 0, i32 1
  %30 = load ptr, ptr %7, align 8
  %31 = call i32 @unpack64(ptr noundef %29, ptr noundef %30)
  %32 = icmp ne i32 %31, 0
  br i1 %32, label %33, label %34

33:                                               ; preds = %27
  br label %164

34:                                               ; preds = %27
  br label %35

35:                                               ; preds = %34
  br label %36

36:                                               ; preds = %35
  br label %37

37:                                               ; preds = %36
  %38 = load ptr, ptr %10, align 8
  %39 = getelementptr inbounds nuw %struct.acct_gather_energy, ptr %38, i32 0, i32 0
  %40 = load ptr, ptr %7, align 8
  %41 = call i32 @unpack32(ptr noundef %39, ptr noundef %40)
  %42 = icmp ne i32 %41, 0
  br i1 %42, label %43, label %44

43:                                               ; preds = %37
  br label %164

44:                                               ; preds = %37
  br label %45

45:                                               ; preds = %44
  br label %46

46:                                               ; preds = %45
  br label %47

47:                                               ; preds = %46
  %48 = load ptr, ptr %10, align 8
  %49 = getelementptr inbounds nuw %struct.acct_gather_energy, ptr %48, i32 0, i32 2
  %50 = load ptr, ptr %7, align 8
  %51 = call i32 @unpack64(ptr noundef %49, ptr noundef %50)
  %52 = icmp ne i32 %51, 0
  br i1 %52, label %53, label %54

53:                                               ; preds = %47
  br label %164

54:                                               ; preds = %47
  br label %55

55:                                               ; preds = %54
  br label %56

56:                                               ; preds = %55
  br label %57

57:                                               ; preds = %56
  %58 = load ptr, ptr %10, align 8
  %59 = getelementptr inbounds nuw %struct.acct_gather_energy, ptr %58, i32 0, i32 3
  %60 = load ptr, ptr %7, align 8
  %61 = call i32 @unpack32(ptr noundef %59, ptr noundef %60)
  %62 = icmp ne i32 %61, 0
  br i1 %62, label %63, label %64

63:                                               ; preds = %57
  br label %164

64:                                               ; preds = %57
  br label %65

65:                                               ; preds = %64
  br label %66

66:                                               ; preds = %65
  br label %67

67:                                               ; preds = %66
  %68 = load ptr, ptr %10, align 8
  %69 = getelementptr inbounds nuw %struct.acct_gather_energy, ptr %68, i32 0, i32 4
  %70 = load ptr, ptr %7, align 8
  %71 = call i32 @unpack64(ptr noundef %69, ptr noundef %70)
  %72 = icmp ne i32 %71, 0
  br i1 %72, label %73, label %74

73:                                               ; preds = %67
  br label %164

74:                                               ; preds = %67
  br label %75

75:                                               ; preds = %74
  br label %76

76:                                               ; preds = %75
  br label %77

77:                                               ; preds = %76
  %78 = load ptr, ptr %10, align 8
  %79 = getelementptr inbounds nuw %struct.acct_gather_energy, ptr %78, i32 0, i32 5
  %80 = load ptr, ptr %7, align 8
  %81 = call i32 @unpack_time(ptr noundef %79, ptr noundef %80)
  %82 = icmp ne i32 %81, 0
  br i1 %82, label %83, label %84

83:                                               ; preds = %77
  br label %164

84:                                               ; preds = %77
  br label %85

85:                                               ; preds = %84
  br label %86

86:                                               ; preds = %85
  br label %87

87:                                               ; preds = %86
  %88 = load ptr, ptr %10, align 8
  %89 = getelementptr inbounds nuw %struct.acct_gather_energy, ptr %88, i32 0, i32 6
  %90 = load ptr, ptr %7, align 8
  %91 = call i32 @unpack_time(ptr noundef %89, ptr noundef %90)
  %92 = icmp ne i32 %91, 0
  br i1 %92, label %93, label %94

93:                                               ; preds = %87
  br label %164

94:                                               ; preds = %87
  br label %95

95:                                               ; preds = %94
  br label %96

96:                                               ; preds = %95
  br label %163

97:                                               ; preds = %22
  %98 = load i16, ptr %8, align 2
  %99 = zext i16 %98 to i32
  %100 = icmp sge i32 %99, 10240
  br i1 %100, label %101, label %162

101:                                              ; preds = %97
  br label %102

102:                                              ; preds = %101
  %103 = load ptr, ptr %10, align 8
  %104 = getelementptr inbounds nuw %struct.acct_gather_energy, ptr %103, i32 0, i32 1
  %105 = load ptr, ptr %7, align 8
  %106 = call i32 @unpack64(ptr noundef %104, ptr noundef %105)
  %107 = icmp ne i32 %106, 0
  br i1 %107, label %108, label %109

108:                                              ; preds = %102
  br label %164

109:                                              ; preds = %102
  br label %110

110:                                              ; preds = %109
  br label %111

111:                                              ; preds = %110
  br label %112

112:                                              ; preds = %111
  %113 = load ptr, ptr %10, align 8
  %114 = getelementptr inbounds nuw %struct.acct_gather_energy, ptr %113, i32 0, i32 0
  %115 = load ptr, ptr %7, align 8
  %116 = call i32 @unpack32(ptr noundef %114, ptr noundef %115)
  %117 = icmp ne i32 %116, 0
  br i1 %117, label %118, label %119

118:                                              ; preds = %112
  br label %164

119:                                              ; preds = %112
  br label %120

120:                                              ; preds = %119
  br label %121

121:                                              ; preds = %120
  br label %122

122:                                              ; preds = %121
  %123 = load ptr, ptr %10, align 8
  %124 = getelementptr inbounds nuw %struct.acct_gather_energy, ptr %123, i32 0, i32 2
  %125 = load ptr, ptr %7, align 8
  %126 = call i32 @unpack64(ptr noundef %124, ptr noundef %125)
  %127 = icmp ne i32 %126, 0
  br i1 %127, label %128, label %129

128:                                              ; preds = %122
  br label %164

129:                                              ; preds = %122
  br label %130

130:                                              ; preds = %129
  br label %131

131:                                              ; preds = %130
  br label %132

132:                                              ; preds = %131
  %133 = load ptr, ptr %10, align 8
  %134 = getelementptr inbounds nuw %struct.acct_gather_energy, ptr %133, i32 0, i32 3
  %135 = load ptr, ptr %7, align 8
  %136 = call i32 @unpack32(ptr noundef %134, ptr noundef %135)
  %137 = icmp ne i32 %136, 0
  br i1 %137, label %138, label %139

138:                                              ; preds = %132
  br label %164

139:                                              ; preds = %132
  br label %140

140:                                              ; preds = %139
  br label %141

141:                                              ; preds = %140
  br label %142

142:                                              ; preds = %141
  %143 = load ptr, ptr %10, align 8
  %144 = getelementptr inbounds nuw %struct.acct_gather_energy, ptr %143, i32 0, i32 4
  %145 = load ptr, ptr %7, align 8
  %146 = call i32 @unpack64(ptr noundef %144, ptr noundef %145)
  %147 = icmp ne i32 %146, 0
  br i1 %147, label %148, label %149

148:                                              ; preds = %142
  br label %164

149:                                              ; preds = %142
  br label %150

150:                                              ; preds = %149
  br label %151

151:                                              ; preds = %150
  br label %152

152:                                              ; preds = %151
  %153 = load ptr, ptr %10, align 8
  %154 = getelementptr inbounds nuw %struct.acct_gather_energy, ptr %153, i32 0, i32 5
  %155 = load ptr, ptr %7, align 8
  %156 = call i32 @unpack_time(ptr noundef %154, ptr noundef %155)
  %157 = icmp ne i32 %156, 0
  br i1 %157, label %158, label %159

158:                                              ; preds = %152
  br label %164

159:                                              ; preds = %152
  br label %160

160:                                              ; preds = %159
  br label %161

161:                                              ; preds = %160
  br label %162

162:                                              ; preds = %161, %97
  br label %163

163:                                              ; preds = %162, %96
  store i32 0, ptr %5, align 4
  store i32 1, ptr %11, align 4
  br label %173

164:                                              ; preds = %158, %148, %138, %128, %118, %108, %93, %83, %73, %63, %53, %43, %33
  %165 = load i8, ptr %9, align 1, !range !11, !noundef !12
  %166 = trunc i8 %165 to i1
  br i1 %166, label %167, label %170

167:                                              ; preds = %164
  %168 = load ptr, ptr %10, align 8
  call void @acct_gather_energy_destroy(ptr noundef %168)
  %169 = load ptr, ptr %6, align 8
  store ptr null, ptr %169, align 8
  br label %172

170:                                              ; preds = %164
  %171 = load ptr, ptr %10, align 8
  call void @llvm.memset.p0.i64(ptr align 8 %171, i8 0, i64 56, i1 false)
  br label %172

172:                                              ; preds = %170, %167
  store i32 -1, ptr %5, align 4
  store i32 1, ptr %11, align 4
  br label %173

173:                                              ; preds = %172, %163
  call void @llvm.lifetime.end.p0(i64 8, ptr %10) #7
  %174 = load i32, ptr %5, align 4
  ret i32 %174
}