; Function Attrs: nounwind uwtable
define dso_local range(i32 -1, 1) i32 @acct_gather_energy_unpack(ptr noundef captures(none) %0, ptr noundef %1, i16 noundef zeroext %2, i1 noundef zeroext %3) local_unnamed_addr #0 {
  %5 = alloca ptr, align 8
  br i1 %3, label %6, label %8

6:                                                ; preds = %4
  %7 = tail call ptr @slurm_xcalloc(i64 noundef 1, i64 noundef 56, i1 noundef zeroext true, i1 noundef zeroext false, ptr noundef nonnull @.str.3, i32 noundef 230, ptr noundef nonnull @__func__.acct_gather_energy_alloc) #8
  store ptr %7, ptr %0, align 8
  br label %10

8:                                                ; preds = %4
  %9 = load ptr, ptr %0, align 8
  br label %10

10:                                               ; preds = %8, %6
  %.0 = phi ptr [ %7, %6 ], [ %9, %8 ]
  %11 = icmp ugt i16 %2, 10751
  br i1 %11, label %12, label %32

12:                                               ; preds = %10
  %13 = getelementptr inbounds nuw i8, ptr %.0, i64 8
  %14 = tail call i32 @unpack64(ptr noundef nonnull %13, ptr noundef %1) #8
  %.not43 = icmp eq i32 %14, 0
  br i1 %.not43, label %15, label %51

15:                                               ; preds = %12
  %16 = tail call i32 @unpack32(ptr noundef nonnull %.0, ptr noundef %1) #8
  %.not44 = icmp eq i32 %16, 0
  br i1 %.not44, label %17, label %51

17:                                               ; preds = %15
  %18 = getelementptr inbounds nuw i8, ptr %.0, i64 16
  %19 = tail call i32 @unpack64(ptr noundef nonnull %18, ptr noundef %1) #8
  %.not45 = icmp eq i32 %19, 0
  br i1 %.not45, label %20, label %51

20:                                               ; preds = %17
  %21 = getelementptr inbounds nuw i8, ptr %.0, i64 24
  %22 = tail call i32 @unpack32(ptr noundef nonnull %21, ptr noundef %1) #8
  %.not46 = icmp eq i32 %22, 0
  br i1 %.not46, label %23, label %51

23:                                               ; preds = %20
  %24 = getelementptr inbounds nuw i8, ptr %.0, i64 32
  %25 = tail call i32 @unpack64(ptr noundef nonnull %24, ptr noundef %1) #8
  %.not47 = icmp eq i32 %25, 0
  br i1 %.not47, label %26, label %51

26:                                               ; preds = %23
  %27 = getelementptr inbounds nuw i8, ptr %.0, i64 40
  %28 = tail call i32 @unpack_time(ptr noundef nonnull %27, ptr noundef %1) #8
  %.not48 = icmp eq i32 %28, 0
  br i1 %.not48, label %29, label %51

29:                                               ; preds = %26
  %30 = getelementptr inbounds nuw i8, ptr %.0, i64 48
  %31 = tail call i32 @unpack_time(ptr noundef nonnull %30, ptr noundef %1) #8
  %.not49 = icmp eq i32 %31, 0
  br i1 %.not49, label %54, label %51

32:                                               ; preds = %10
  %33 = icmp samesign ugt i16 %2, 10239
  br i1 %33, label %34, label %54

34:                                               ; preds = %32
  %35 = getelementptr inbounds nuw i8, ptr %.0, i64 8
  %36 = tail call i32 @unpack64(ptr noundef nonnull %35, ptr noundef %1) #8
  %.not = icmp eq i32 %36, 0
  br i1 %.not, label %37, label %51

37:                                               ; preds = %34
  %38 = tail call i32 @unpack32(ptr noundef nonnull %.0, ptr noundef %1) #8
  %.not38 = icmp eq i32 %38, 0
  br i1 %.not38, label %39, label %51

39:                                               ; preds = %37
  %40 = getelementptr inbounds nuw i8, ptr %.0, i64 16
  %41 = tail call i32 @unpack64(ptr noundef nonnull %40, ptr noundef %1) #8
  %.not39 = icmp eq i32 %41, 0
  br i1 %.not39, label %42, label %51

42:                                               ; preds = %39
  %43 = getelementptr inbounds nuw i8, ptr %.0, i64 24
  %44 = tail call i32 @unpack32(ptr noundef nonnull %43, ptr noundef %1) #8
  %.not40 = icmp eq i32 %44, 0
  br i1 %.not40, label %45, label %51

45:                                               ; preds = %42
  %46 = getelementptr inbounds nuw i8, ptr %.0, i64 32
  %47 = tail call i32 @unpack64(ptr noundef nonnull %46, ptr noundef %1) #8
  %.not41 = icmp eq i32 %47, 0
  br i1 %.not41, label %48, label %51

48:                                               ; preds = %45
  %49 = getelementptr inbounds nuw i8, ptr %.0, i64 40
  %50 = tail call i32 @unpack_time(ptr noundef nonnull %49, ptr noundef %1) #8
  %.not42 = icmp eq i32 %50, 0
  br i1 %.not42, label %54, label %51

51:                                               ; preds = %48, %45, %42, %39, %37, %34, %29, %26, %23, %20, %17, %15, %12
  br i1 %3, label %52, label %53

52:                                               ; preds = %51
  call void @llvm.lifetime.start.p0(i64 8, ptr nonnull %5)
  store ptr %.0, ptr %5, align 8
  call void @slurm_xfree(ptr noundef nonnull %5) #8
  call void @llvm.lifetime.end.p0(i64 8, ptr nonnull %5)
  store ptr null, ptr %0, align 8
  br label %54

53:                                               ; preds = %51
  tail call void @llvm.memset.p0.i64(ptr noundef nonnull align 8 dereferenceable(56) %.0, i8 0, i64 56, i1 false)
  br label %54

54:                                               ; preds = %52, %53, %29, %48, %32
  %.036 = phi i32 [ 0, %32 ], [ 0, %48 ], [ 0, %29 ], [ -1, %53 ], [ -1, %52 ]
  ret i32 %.036
}